; Function Attrs: nounwind uwtable
define hidden zeroext i1 @X11_SetClipboardData(ptr noundef readonly captures(none) %0) local_unnamed_addr #0 {
  %2 = getelementptr inbounds nuw i8, ptr %0, i64 1656
  %3 = load ptr, ptr %2, align 8
  %4 = getelementptr inbounds nuw i8, ptr %3, i64 440
  %5 = load i64, ptr %4, align 8
  %6 = getelementptr inbounds nuw i8, ptr %0, i64 856
  %7 = load ptr, ptr %6, align 8
  %8 = getelementptr inbounds nuw i8, ptr %0, i64 872
  %9 = load ptr, ptr %8, align 8
  %10 = getelementptr inbounds nuw i8, ptr %0, i64 880
  %11 = load ptr, ptr %10, align 8
  %12 = getelementptr inbounds nuw i8, ptr %0, i64 888
  %13 = load i64, ptr %12, align 8
  %14 = getelementptr inbounds nuw i8, ptr %0, i64 848
  %15 = load i32, ptr %14, align 8
  %16 = tail call fastcc zeroext i1 @SetSelectionData(ptr %3, i64 noundef %5, ptr noundef %7, ptr noundef %9, ptr noundef %11, i64 noundef %13, i32 noundef %15)
  ret i1 %16
}